target datalayout = "e-m:e-p270:32:32-p271:32:32-p272:64:64-i64:64-i128:128-f80:128-n8:16:32:64-S128"
target triple = "x86_64-pc-linux-gnu"

%struct.SDL_VideoDisplay = type { i32, ptr, i32, i32, ptr, %struct.SDL_DisplayMode, ptr, i32, i32, float, %struct.SDL_HDROutputProperties, i8, ptr, ptr, i32, ptr }
%struct.SDL_DisplayMode = type { i32, i32, i32, i32, float, float, i32, i32, ptr }
%struct.SDL_HDROutputProperties = type { float, float }
%struct.SDL_DisplayData = type { ptr, ptr, ptr, ptr, ptr, double, i32, i32, i32, i32, i32, i32, i32, i32, i32, i32, i32, i32, i8, i8, i8, %struct.SDL_HDROutputProperties, i32, %struct.SDL_VideoDisplay, i32, ptr }

; Function Attrs: nounwind uwtable
define internal void @display_handle_geometry(ptr noundef %0, ptr noundef %1, i32 noundef %2, i32 noundef %3, i32 noundef %4, i32 noundef %5, i32 noundef %6, ptr noundef %7, ptr noundef %8, i32 noundef %9) #0 {
  %11 = alloca ptr, align 8
  %12 = alloca ptr, align 8
  %13 = alloca i32, align 4
  %14 = alloca i32, align 4
  %15 = alloca i32, align 4
  %16 = alloca i32, align 4
  %17 = alloca i32, align 4
  %18 = alloca ptr, align 8
  %19 = alloca ptr, align 8
  %20 = alloca i32, align 4
  %21 = alloca ptr, align 8
  store ptr %0, ptr %11, align 8
  store ptr %1, ptr %12, align 8
  store i32 %2, ptr %13, align 4
  store i32 %3, ptr %14, align 4
  store i32 %4, ptr %15, align 4
  store i32 %5, ptr %16, align 4
  store i32 %6, ptr %17, align 4
  store ptr %7, ptr %18, align 8
  store ptr %8, ptr %19, align 8
  store i32 %9, ptr %20, align 4
  call void @llvm.lifetime.start.p0(i64 8, ptr %21) #8
  %22 = load ptr, ptr %11, align 8
  store ptr %22, ptr %21, align 8
  %23 = load ptr, ptr %21, align 8
  %24 = getelementptr inbounds nuw %struct.SDL_DisplayData, ptr %23, i32 0, i32 18
  %25 = load i8, ptr %24, align 8, !range !5, !noundef !6
  %26 = trunc i8 %25 to i1
  br i1 %26, label %34, label %27

27:                                               ; preds = %10
  %28 = load i32, ptr %13, align 4
  %29 = load ptr, ptr %21, align 8
  %30 = getelementptr inbounds nuw %struct.SDL_DisplayData, ptr %29, i32 0, i32 11
  store i32 %28, ptr %30, align 4
  %31 = load i32, ptr %14, align 4
  %32 = load ptr, ptr %21, align 8
  %33 = getelementptr inbounds nuw %struct.SDL_DisplayData, ptr %32, i32 0, i32 12
  store i32 %31, ptr %33, align 8
  br label %34

34:                                               ; preds = %27, %10
  %35 = load i32, ptr %15, align 4
  %36 = load ptr, ptr %21, align 8
  %37 = getelementptr inbounds nuw %struct.SDL_DisplayData, ptr %36, i32 0, i32 16
  store i32 %35, ptr %37, align 8
  %38 = load i32, ptr %16, align 4
  %39 = load ptr, ptr %21, align 8
  %40 = getelementptr inbounds nuw %struct.SDL_DisplayData, ptr %39, i32 0, i32 17
  store i32 %38, ptr %40, align 4
  %41 = load ptr, ptr %21, align 8
  %42 = getelementptr inbounds nuw %struct.SDL_DisplayData, ptr %41, i32 0, i32 22
  %43 = load i32, ptr %42, align 4
  %44 = icmp eq i32 %43, 0
  br i1 %44, label %45, label %57

45:                                               ; preds = %34
  %46 = load ptr, ptr %21, align 8
  %47 = getelementptr inbounds nuw %struct.SDL_DisplayData, ptr %46, i32 0, i32 23
  %48 = getelementptr inbounds nuw %struct.SDL_VideoDisplay, ptr %47, i32 0, i32 1
  %49 = load ptr, ptr %48, align 8
  %50 = icmp ne ptr %49, null
  br i1 %50, label %57, label %51

51:                                               ; preds = %45
  %52 = load ptr, ptr %19, align 8
  %53 = call noalias ptr @SDL_strdup_REAL(ptr noundef %52)
  %54 = load ptr, ptr %21, align 8
  %55 = getelementptr inbounds nuw %struct.SDL_DisplayData, ptr %54, i32 0, i32 23
  %56 = getelementptr inbounds nuw %struct.SDL_VideoDisplay, ptr %55, i32 0, i32 1
  store ptr %53, ptr %56, align 8
  br label %57

57:                                               ; preds = %51, %45, %34
  %58 = load i32, ptr %20, align 4
  %59 = load ptr, ptr %21, align 8
  %60 = getelementptr inbounds nuw %struct.SDL_DisplayData, ptr %59, i32 0, i32 14
  store i32 %58, ptr %60, align 8
  %61 = load ptr, ptr %21, align 8
  %62 = getelementptr inbounds nuw %struct.SDL_DisplayData, ptr %61, i32 0, i32 16
  %63 = load i32, ptr %62, align 8
  %64 = load ptr, ptr %21, align 8
  %65 = getelementptr inbounds nuw %struct.SDL_DisplayData, ptr %64, i32 0, i32 17
  %66 = load i32, ptr %65, align 4
  %67 = icmp sge i32 %63, %66
  br i1 %67, label %68, label %95

68:                                               ; preds = %57
  %69 = load i32, ptr %20, align 4
  switch i32 %69, label %94 [
    i32 0, label %70
    i32 1, label %73
    i32 2, label %76
    i32 3, label %79
    i32 4, label %82
    i32 5, label %85
    i32 6, label %88
    i32 7, label %91
  ]

70:                                               ; preds = %68
  %71 = load ptr, ptr %21, align 8
  %72 = getelementptr inbounds nuw %struct.SDL_DisplayData, ptr %71, i32 0, i32 15
  store i32 1, ptr %72, align 4
  br label %94

73:                                               ; preds = %68
  %74 = load ptr, ptr %21, align 8
  %75 = getelementptr inbounds nuw %struct.SDL_DisplayData, ptr %74, i32 0, i32 15
  store i32 3, ptr %75, align 4
  br label %94

76:                                               ; preds = %68
  %77 = load ptr, ptr %21, align 8
  %78 = getelementptr inbounds nuw %struct.SDL_DisplayData, ptr %77, i32 0, i32 15
  store i32 2, ptr %78, align 4
  br label %94

79:                                               ; preds = %68
  %80 = load ptr, ptr %21, align 8
  %81 = getelementptr inbounds nuw %struct.SDL_DisplayData, ptr %80, i32 0, i32 15
  store i32 4, ptr %81, align 4
  br label %94

82:                                               ; preds = %68
  %83 = load ptr, ptr %21, align 8
  %84 = getelementptr inbounds nuw %struct.SDL_DisplayData, ptr %83, i32 0, i32 15
  store i32 2, ptr %84, align 4
  br label %94

85:                                               ; preds = %68
  %86 = load ptr, ptr %21, align 8
  %87 = getelementptr inbounds nuw %struct.SDL_DisplayData, ptr %86, i32 0, i32 15
  store i32 4, ptr %87, align 4
  br label %94

88:                                               ; preds = %68
  %89 = load ptr, ptr %21, align 8
  %90 = getelementptr inbounds nuw %struct.SDL_DisplayData, ptr %89, i32 0, i32 15
  store i32 1, ptr %90, align 4
  br label %94

91:                                               ; preds = %68
  %92 = load ptr, ptr %21, align 8
  %93 = getelementptr inbounds nuw %struct.SDL_DisplayData, ptr %92, i32 0, i32 15
  store i32 3, ptr %93, align 4
  br label %94

94:                                               ; preds = %68, %91, %88, %85, %82, %79, %76, %73, %70
  br label %122

95:                                               ; preds = %57
  %96 = load i32, ptr %20, align 4
  switch i32 %96, label %121 [
    i32 0, label %97
    i32 1, label %100
    i32 2, label %103
    i32 3, label %106
    i32 4, label %109
    i32 5, label %112
    i32 6, label %115
    i32 7, label %118
  ]

97:                                               ; preds = %95
  %98 = load ptr, ptr %21, align 8
  %99 = getelementptr inbounds nuw %struct.SDL_DisplayData, ptr %98, i32 0, i32 15
  store i32 3, ptr %99, align 4
  br label %121

100:                                              ; preds = %95
  %101 = load ptr, ptr %21, align 8
  %102 = getelementptr inbounds nuw %struct.SDL_DisplayData, ptr %101, i32 0, i32 15
  store i32 1, ptr %102, align 4
  br label %121

103:                                              ; preds = %95
  %104 = load ptr, ptr %21, align 8
  %105 = getelementptr inbounds nuw %struct.SDL_DisplayData, ptr %104, i32 0, i32 15
  store i32 4, ptr %105, align 4
  br label %121

106:                                              ; preds = %95
  %107 = load ptr, ptr %21, align 8
  %108 = getelementptr inbounds nuw %struct.SDL_DisplayData, ptr %107, i32 0, i32 15
  store i32 2, ptr %108, align 4
  br label %121

109:                                              ; preds = %95
  %110 = load ptr, ptr %21, align 8
  %111 = getelementptr inbounds nuw %struct.SDL_DisplayData, ptr %110, i32 0, i32 15
  store i32 4, ptr %111, align 4
  br label %121

112:                                              ; preds = %95
  %113 = load ptr, ptr %21, align 8
  %114 = getelementptr inbounds nuw %struct.SDL_DisplayData, ptr %113, i32 0, i32 15
  store i32 2, ptr %114, align 4
  br label %121

115:                                              ; preds = %95
  %116 = load ptr, ptr %21, align 8
  %117 = getelementptr inbounds nuw %struct.SDL_DisplayData, ptr %116, i32 0, i32 15
  store i32 3, ptr %117, align 4
  br label %121

118:                                              ; preds = %95
  %119 = load ptr, ptr %21, align 8
  %120 = getelementptr inbounds nuw %struct.SDL_DisplayData, ptr %119, i32 0, i32 15
  store i32 1, ptr %120, align 4
  br label %121

121:                                              ; preds = %95, %118, %115, %112, %109, %106, %103, %100, %97
  br label %122

122:                                              ; preds = %121, %94
  call void @llvm.lifetime.end.p0(i64 8, ptr %21) #8
  ret void
}