; Function Attrs: nounwind uwtable
define internal void @display_handle_geometry(ptr noundef captures(none) initializes((80, 84), (88, 96)) %0, ptr readnone captures(none) %1, i32 noundef %2, i32 noundef %3, i32 noundef %4, i32 noundef %5, i32 %6, ptr readnone captures(none) %7, ptr noundef %8, i32 noundef %9) #0 {
  %11 = getelementptr inbounds nuw i8, ptr %0, i64 96
  %12 = load i8, ptr %11, align 8, !range !5, !noundef !6
  %13 = trunc nuw i8 %12 to i1
  br i1 %13, label %17, label %14

14:                                               ; preds = %10
  %15 = getelementptr inbounds nuw i8, ptr %0, i64 68
  store i32 %2, ptr %15, align 4
  %16 = getelementptr inbounds nuw i8, ptr %0, i64 72
  store i32 %3, ptr %16, align 8
  br label %17

17:                                               ; preds = %14, %10
  %18 = getelementptr inbounds nuw i8, ptr %0, i64 88
  store i32 %4, ptr %18, align 8
  %19 = getelementptr inbounds nuw i8, ptr %0, i64 92
  store i32 %5, ptr %19, align 4
  %20 = getelementptr inbounds nuw i8, ptr %0, i64 108
  %21 = load i32, ptr %20, align 4
  %22 = icmp eq i32 %21, 0
  br i1 %22, label %23, label %28

23:                                               ; preds = %17
  %24 = getelementptr inbounds nuw i8, ptr %0, i64 120
  %25 = load ptr, ptr %24, align 8
  %.not = icmp eq ptr %25, null
  br i1 %.not, label %26, label %28

26:                                               ; preds = %23
  %27 = tail call noalias ptr @SDL_strdup_REAL(ptr noundef %8) #12
  store ptr %27, ptr %24, align 8
  %.pre = load i32, ptr %18, align 8
  %.pre36 = load i32, ptr %19, align 4
  br label %28

28:                                               ; preds = %26, %23, %17
  %29 = phi i32 [ %.pre36, %26 ], [ %5, %23 ], [ %5, %17 ]
  %30 = phi i32 [ %.pre, %26 ], [ %4, %23 ], [ %4, %17 ]
  %31 = getelementptr inbounds nuw i8, ptr %0, i64 80
  store i32 %9, ptr %31, align 8
  %32 = icmp ult i32 %9, 8
  br i1 %32, label %.sink.split, label %35

.sink.split:                                      ; preds = %28
  %.not35 = icmp slt i32 %30, %29
  %switch.table.display_handle_geometry.5.switch.table.display_handle_geometry = select i1 %.not35, ptr @switch.table.display_handle_geometry.5, ptr @switch.table.display_handle_geometry
  %33 = zext nneg i32 %9 to i64
  %switch.gep39 = getelementptr inbounds nuw [8 x i32], ptr %switch.table.display_handle_geometry.5.switch.table.display_handle_geometry, i64 0, i64 %33
  %switch.load40 = load i32, ptr %switch.gep39, align 4
  %34 = getelementptr inbounds nuw i8, ptr %0, i64 84
  store i32 %switch.load40, ptr %34, align 4
  br label %35

35:                                               ; preds = %28, %.sink.split
  ret void
}